target datalayout = "e-m:e-p270:32:32-p271:32:32-p272:64:64-i64:64-i128:128-f80:128-n8:16:32:64-S128"
target triple = "x86_64-pc-linux-gnu"

%struct.slurm_conf_t = type { i64, ptr, i16, ptr, ptr, ptr, ptr, ptr, i16, ptr, ptr, ptr, ptr, ptr, ptr, ptr, i16, ptr, ptr, ptr, ptr, i16, ptr, ptr, ptr, i64, ptr, ptr, ptr, ptr, i16, ptr, ptr, i16, i32, ptr, i32, ptr, i32, i32, ptr, ptr, i64, i64, ptr, i16, i16, ptr, i32, i32, ptr, i32, ptr, i32, i16, i16, i16, ptr, i16, i16, ptr, ptr, i32, i16, i16, ptr, i32, i16, ptr, ptr, ptr, ptr, i16, ptr, ptr, ptr, ptr, i32, ptr, ptr, ptr, ptr, i16, i16, ptr, i32, i32, i32, i16, i16, ptr, ptr, i16, ptr, ptr, i32, i32, i32, i32, i32, i64, i32, i32, i16, ptr, ptr, i32, ptr, ptr, ptr, i16, i32, ptr, ptr, i16, ptr, ptr, i32, i16, ptr, ptr, ptr, ptr, i32, i32, i16, i16, i32, ptr, i16, ptr, i32, i32, i32, i32, i32, i32, ptr, i16, ptr, ptr, i32, i16, ptr, i32, i16, i16, ptr, ptr, ptr, i16, ptr, ptr, ptr, ptr, i16, i16, ptr, i16, ptr, i16, ptr, i16, ptr, i16, ptr, ptr, ptr, ptr, i16, ptr, ptr, ptr, i32, ptr, i32, ptr, ptr, i16, ptr, ptr, i32, i16, ptr, ptr, i16, i16, ptr, i16, ptr, ptr, ptr, i32, ptr, i16, i16, ptr, ptr, ptr, ptr, ptr, ptr, ptr, ptr, i16, i32, i16, ptr, ptr, ptr, ptr, i32, ptr, ptr, ptr, i16, ptr, ptr, ptr, i16, ptr, i16, ptr, i16, i16, ptr }
%struct.sockaddr_storage = type { i16, [118 x i8], i64 }
%struct.addrinfo = type { i32, i32, i32, i32, i32, ptr, ptr, ptr }

@slurm_conf = external global %struct.slurm_conf_t, align 8
@.str.24 = private unnamed_addr constant [41 x i8] c"NET: %s: called with port='%u' host='%s'\00", align 1
@__func__.slurm_set_addr = private unnamed_addr constant [15 x i8] c"slurm_set_addr\00", align 1
@.str.25 = private unnamed_addr constant [27 x i8] c"%s: Unable to resolve \22%s\22\00", align 1
@.str.26 = private unnamed_addr constant [33 x i8] c"NET: %s: update addr. addr='%pA'\00", align 1

; Function Attrs: nounwind uwtable
define dso_local void @slurm_set_addr(ptr noundef %0, i16 noundef zeroext %1, ptr noundef %2) #0 {
  %4 = alloca ptr, align 8
  %5 = alloca i16, align 2
  %6 = alloca ptr, align 8
  %7 = alloca ptr, align 8
  %8 = alloca ptr, align 8
  %9 = alloca i32, align 4
  store ptr %0, ptr %4, align 8
  store i16 %1, ptr %5, align 2
  store ptr %2, ptr %6, align 8
  call void @llvm.lifetime.start.p0(i64 8, ptr %7) #9
  call void @llvm.lifetime.start.p0(i64 8, ptr %8) #9
  br label %10

10:                                               ; preds = %3
  %11 = load i64, ptr getelementptr inbounds nuw (%struct.slurm_conf_t, ptr @slurm_conf, i32 0, i32 42), align 8
  %12 = and i64 %11, 1024
  %13 = icmp ne i64 %12, 0
  br i1 %13, label %14, label %25

14:                                               ; preds = %10
  br label %15

15:                                               ; preds = %14
  %16 = call i32 @get_log_level()
  %17 = icmp sge i32 %16, 4
  br i1 %17, label %18, label %22

18:                                               ; preds = %15
  %19 = load i16, ptr %5, align 2
  %20 = zext i16 %19 to i32
  %21 = load ptr, ptr %6, align 8
  call void (i32, ptr, ...) @log_var(i32 noundef 4, ptr noundef @.str.24, ptr noundef @__func__.slurm_set_addr, i32 noundef %20, ptr noundef %21)
  br label %22

22:                                               ; preds = %18, %15
  br label %23

23:                                               ; preds = %22
  br label %24

24:                                               ; preds = %23
  br label %25

25:                                               ; preds = %24, %10
  br label %26

26:                                               ; preds = %25
  br label %27

27:                                               ; preds = %26
  %28 = load ptr, ptr %6, align 8
  %29 = load i16, ptr %5, align 2
  %30 = call ptr @xgetaddrinfo_port(ptr noundef %28, i16 noundef zeroext %29)
  store ptr %30, ptr %8, align 8
  %31 = load ptr, ptr %8, align 8
  %32 = icmp ne ptr %31, null
  br i1 %32, label %56, label %33

33:                                               ; preds = %27
  br label %34

34:                                               ; preds = %33
  %35 = call zeroext i1 @running_in_daemon()
  br i1 %35, label %36, label %39

36:                                               ; preds = %34
  %37 = load ptr, ptr %6, align 8
  %38 = call i32 (ptr, ...) @error(ptr noundef @.str.25, ptr noundef @__func__.slurm_set_addr, ptr noundef %37)
  br label %51

39:                                               ; preds = %34
  br label %40

40:                                               ; preds = %39
  br label %41

41:                                               ; preds = %40
  %42 = call i32 @get_log_level()
  %43 = icmp sge i32 %42, 4
  br i1 %43, label %44, label %46

44:                                               ; preds = %41
  %45 = load ptr, ptr %6, align 8
  call void (i32, ptr, ...) @log_var(i32 noundef 4, ptr noundef @.str.25, ptr noundef @__func__.slurm_set_addr, ptr noundef %45)
  br label %46

46:                                               ; preds = %44, %41
  br label %47

47:                                               ; preds = %46
  br label %48

48:                                               ; preds = %47
  br label %49

49:                                               ; preds = %48
  br label %50

50:                                               ; preds = %49
  br label %51

51:                                               ; preds = %50, %36
  br label %52

52:                                               ; preds = %51
  br label %53

53:                                               ; preds = %52
  %54 = load ptr, ptr %4, align 8
  %55 = getelementptr inbounds nuw %struct.sockaddr_storage, ptr %54, i32 0, i32 0
  store i16 0, ptr %55, align 8
  store i32 1, ptr %9, align 4
  br label %114

56:                                               ; preds = %27
  %57 = load ptr, ptr %6, align 8
  %58 = icmp ne ptr %57, null
  br i1 %58, label %64, label %59

59:                                               ; preds = %56
  %60 = load i32, ptr getelementptr inbounds nuw (%struct.slurm_conf_t, ptr @slurm_conf, i32 0, i32 34), align 4
  %61 = zext i32 %60 to i64
  %62 = and i64 %61, 128
  %63 = icmp ne i64 %62, 0
  br i1 %63, label %66, label %64

64:                                               ; preds = %59, %56
  %65 = load ptr, ptr %8, align 8
  store ptr %65, ptr %7, align 8
  br label %88

66:                                               ; preds = %59
  %67 = load ptr, ptr %8, align 8
  store ptr %67, ptr %7, align 8
  br label %68

68:                                               ; preds = %78, %66
  %69 = load ptr, ptr %7, align 8
  %70 = icmp ne ptr %69, null
  br i1 %70, label %71, label %82

71:                                               ; preds = %68
  %72 = load ptr, ptr %7, align 8
  %73 = getelementptr inbounds nuw %struct.addrinfo, ptr %72, i32 0, i32 1
  %74 = load i32, ptr %73, align 4
  %75 = icmp eq i32 %74, 10
  br i1 %75, label %76, label %77

76:                                               ; preds = %71
  br label %82

77:                                               ; preds = %71
  br label %78

78:                                               ; preds = %77
  %79 = load ptr, ptr %7, align 8
  %80 = getelementptr inbounds nuw %struct.addrinfo, ptr %79, i32 0, i32 7
  %81 = load ptr, ptr %80, align 8
  store ptr %81, ptr %7, align 8
  br label %68, !llvm.loop !19

82:                                               ; preds = %76, %68
  %83 = load ptr, ptr %7, align 8
  %84 = icmp ne ptr %83, null
  br i1 %84, label %87, label %85

85:                                               ; preds = %82
  %86 = load ptr, ptr %8, align 8
  store ptr %86, ptr %7, align 8
  br label %87

87:                                               ; preds = %85, %82
  br label %88

88:                                               ; preds = %87, %64
  %89 = load ptr, ptr %4, align 8
  %90 = load ptr, ptr %7, align 8
  %91 = getelementptr inbounds nuw %struct.addrinfo, ptr %90, i32 0, i32 5
  %92 = load ptr, ptr %91, align 8
  %93 = load ptr, ptr %7, align 8
  %94 = getelementptr inbounds nuw %struct.addrinfo, ptr %93, i32 0, i32 4
  %95 = load i32, ptr %94, align 8
  %96 = zext i32 %95 to i64
  call void @llvm.memcpy.p0.p0.i64(ptr align 8 %89, ptr align 2 %92, i64 %96, i1 false)
  br label %97

97:                                               ; preds = %88
  %98 = load i64, ptr getelementptr inbounds nuw (%struct.slurm_conf_t, ptr @slurm_conf, i32 0, i32 42), align 8
  %99 = and i64 %98, 1024
  %100 = icmp ne i64 %99, 0
  br i1 %100, label %101, label %110

101:                                              ; preds = %97
  br label %102

102:                                              ; preds = %101
  %103 = call i32 @get_log_level()
  %104 = icmp sge i32 %103, 4
  br i1 %104, label %105, label %107

105:                                              ; preds = %102
  %106 = load ptr, ptr %4, align 8
  call void (i32, ptr, ...) @log_var(i32 noundef 4, ptr noundef @.str.26, ptr noundef @__func__.slurm_set_addr, ptr noundef %106)
  br label %107

107:                                              ; preds = %105, %102
  br label %108

108:                                              ; preds = %107
  br label %109

109:                                              ; preds = %108
  br label %110

110:                                              ; preds = %109, %97
  br label %111

111:                                              ; preds = %110
  br label %112

112:                                              ; preds = %111
  %113 = load ptr, ptr %8, align 8
  call void @freeaddrinfo(ptr noundef %113) #9
  store i32 0, ptr %9, align 4
  br label %114

114:                                              ; preds = %112, %53
  call void @llvm.lifetime.end.p0(i64 8, ptr %8) #9
  call void @llvm.lifetime.end.p0(i64 8, ptr %7) #9
  %115 = load i32, ptr %9, align 4
  switch i32 %115, label %117 [
    i32 0, label %116
    i32 1, label %116
  ]

116:                                              ; preds = %114, %114
  ret void

117:                                              ; preds = %114
  unreachable
}