; Function Attrs: nounwind uwtable
define dso_local void @slurm_set_addr(ptr noundef %0, i16 noundef zeroext %1, ptr noundef %2) local_unnamed_addr #0 {
  %4 = load i64, ptr getelementptr inbounds nuw (i8, ptr @slurm_conf, i64 320), align 8
  %5 = and i64 %4, 1024
  %.not = icmp eq i64 %5, 0
  br i1 %.not, label %11, label %6

6:                                                ; preds = %3
  %7 = tail call i32 @get_log_level() #11
  %8 = icmp sgt i32 %7, 3
  br i1 %8, label %9, label %11

9:                                                ; preds = %6
  %10 = zext i16 %1 to i32
  tail call void (i32, ptr, ...) @log_var(i32 noundef 4, ptr noundef nonnull @.str.24, ptr noundef nonnull @__func__.slurm_set_addr, i32 noundef %10, ptr noundef %2) #11
  br label %11

11:                                               ; preds = %6, %9, %3
  %12 = tail call ptr @xgetaddrinfo_port(ptr noundef %2, i16 noundef zeroext %1) #11
  %.not21 = icmp eq ptr %12, null
  br i1 %.not21, label %13, label %22

13:                                               ; preds = %11
  %14 = tail call zeroext i1 @running_in_daemon() #11
  br i1 %14, label %15, label %17

15:                                               ; preds = %13
  %16 = tail call i32 (ptr, ...) @error(ptr noundef nonnull @.str.25, ptr noundef nonnull @__func__.slurm_set_addr, ptr noundef %2) #11
  br label %21

17:                                               ; preds = %13
  %18 = tail call i32 @get_log_level() #11
  %19 = icmp sgt i32 %18, 3
  br i1 %19, label %20, label %21

20:                                               ; preds = %17
  tail call void (i32, ptr, ...) @log_var(i32 noundef 4, ptr noundef nonnull @.str.25, ptr noundef nonnull @__func__.slurm_set_addr, ptr noundef %2) #11
  br label %21

21:                                               ; preds = %17, %20, %15
  store i16 0, ptr %0, align 8
  br label %44

22:                                               ; preds = %11
  %.not22 = icmp eq ptr %2, null
  br i1 %.not22, label %23, label %.loopexit

23:                                               ; preds = %22
  %24 = load i32, ptr getelementptr inbounds nuw (i8, ptr @slurm_conf, i64 268), align 4
  %25 = and i32 %24, 128
  %.not23 = icmp eq i32 %25, 0
  br i1 %.not23, label %.loopexit, label %.preheader

.preheader:                                       ; preds = %23, %29
  %.126 = phi ptr [ %31, %29 ], [ %12, %23 ]
  %26 = getelementptr inbounds nuw i8, ptr %.126, i64 4
  %27 = load i32, ptr %26, align 4
  %28 = icmp eq i32 %27, 10
  br i1 %28, label %.loopexit, label %29

29:                                               ; preds = %.preheader
  %30 = getelementptr inbounds nuw i8, ptr %.126, i64 40
  %31 = load ptr, ptr %30, align 8
  %.not24 = icmp eq ptr %31, null
  br i1 %.not24, label %.loopexit, label %.preheader, !llvm.loop !17

.loopexit:                                        ; preds = %29, %.preheader, %22, %23
  %.0 = phi ptr [ %12, %23 ], [ %12, %22 ], [ %12, %29 ], [ %.126, %.preheader ]
  %32 = getelementptr inbounds nuw i8, ptr %.0, i64 24
  %33 = load ptr, ptr %32, align 8
  %34 = getelementptr inbounds nuw i8, ptr %.0, i64 16
  %35 = load i32, ptr %34, align 8
  %36 = zext i32 %35 to i64
  tail call void @llvm.memcpy.p0.p0.i64(ptr align 8 %0, ptr align 2 %33, i64 %36, i1 false)
  %37 = load i64, ptr getelementptr inbounds nuw (i8, ptr @slurm_conf, i64 320), align 8
  %38 = and i64 %37, 1024
  %.not25 = icmp eq i64 %38, 0
  br i1 %.not25, label %43, label %39

39:                                               ; preds = %.loopexit
  %40 = tail call i32 @get_log_level() #11
  %41 = icmp sgt i32 %40, 3
  br i1 %41, label %42, label %43

42:                                               ; preds = %39
  tail call void (i32, ptr, ...) @log_var(i32 noundef 4, ptr noundef nonnull @.str.26, ptr noundef nonnull @__func__.slurm_set_addr, ptr noundef %0) #11
  br label %43

43:                                               ; preds = %39, %42, %.loopexit
  tail call void @freeaddrinfo(ptr noundef nonnull %12) #11
  br label %44

44:                                               ; preds = %43, %21
  ret void
}